; Function Attrs: mustprogress nofree nounwind willreturn memory(read) uwtable
define dso_local noundef ptr @_ZN5clang4Expr34IgnoreConversionOperatorSingleStepEv(ptr noundef nonnull align 8 dereferenceable(16) %0) local_unnamed_addr #5 align 2 {
  %2 = load i8, ptr %0, align 8
  %.not = icmp eq i8 %2, 92
  br i1 %.not, label %3, label %_ZN4llvm15isa_and_nonnullIJN5clang17CXXConversionDeclEEPNS1_13CXXMethodDeclEEEbRKT0_.exit.thread

3:                                                ; preds = %1
  %4 = tail call noundef ptr @_ZNK5clang17CXXMemberCallExpr13getMethodDeclEv(ptr noundef nonnull align 8 dereferenceable(24) %0) #28
  %.not.i.i = icmp eq ptr %4, null
  br i1 %.not.i.i, label %_ZN4llvm15isa_and_nonnullIJN5clang17CXXConversionDeclEEPNS1_13CXXMethodDeclEEEbRKT0_.exit.thread, label %_ZN4llvm15isa_and_nonnullIJN5clang17CXXConversionDeclEEPNS1_13CXXMethodDeclEEEbRKT0_.exit

_ZN4llvm15isa_and_nonnullIJN5clang17CXXConversionDeclEEPNS1_13CXXMethodDeclEEEbRKT0_.exit: ; preds = %3
  %5 = getelementptr inbounds nuw i8, ptr %4, i64 28
  %6 = load i32, ptr %5, align 4
  %7 = and i32 %6, 127
  %8 = icmp eq i32 %7, 34
  br i1 %8, label %9, label %_ZN4llvm15isa_and_nonnullIJN5clang17CXXConversionDeclEEPNS1_13CXXMethodDeclEEEbRKT0_.exit.thread

9:                                                ; preds = %_ZN4llvm15isa_and_nonnullIJN5clang17CXXConversionDeclEEPNS1_13CXXMethodDeclEEEbRKT0_.exit
  %10 = tail call noundef ptr @_ZNK5clang17CXXMemberCallExpr25getImplicitObjectArgumentEv(ptr noundef nonnull align 8 dereferenceable(24) %0) #28
  br label %_ZN4llvm15isa_and_nonnullIJN5clang17CXXConversionDeclEEPNS1_13CXXMethodDeclEEEbRKT0_.exit.thread

_ZN4llvm15isa_and_nonnullIJN5clang17CXXConversionDeclEEPNS1_13CXXMethodDeclEEEbRKT0_.exit.thread: ; preds = %3, %1, %_ZN4llvm15isa_and_nonnullIJN5clang17CXXConversionDeclEEPNS1_13CXXMethodDeclEEEbRKT0_.exit, %9
  %.0 = phi ptr [ %10, %9 ], [ %0, %_ZN4llvm15isa_and_nonnullIJN5clang17CXXConversionDeclEEPNS1_13CXXMethodDeclEEEbRKT0_.exit ], [ %0, %1 ], [ %0, %3 ]
  ret ptr %.0
}